target datalayout = "e-m:e-p270:32:32-p271:32:32-p272:64:64-i64:64-i128:128-f80:128-n8:16:32:64-S128"
target triple = "x86_64-unknown-linux-gnu"

%"class.std::__cxx11::basic_string" = type { %"struct.std::__cxx11::basic_string<char>::_Alloc_hider", i64, %union.anon }
%"struct.std::__cxx11::basic_string<char>::_Alloc_hider" = type { ptr }
%union.anon = type { i64, [8 x i8] }

@.str.9 = private unnamed_addr constant [107 x i8] c"generated/home/dtcxzyw/WorkSpace/Projects/compilers/llvm-opt-benchmark/bench/z3/z3/src/ast/ast_smt2_pp.cpp\00", align 1
@.str.28 = private unnamed_addr constant [49 x i8] c"Failed to verify: get_dlutil().is_numeral(t, v)\0A\00", align 1

; Function Attrs: mustprogress uwtable
define internal noundef ptr @_ZN9format_nsL9mk_stringER11ast_managerRKNSt7__cxx1112basic_stringIcSt11char_traitsIcESaIcEEE(ptr noundef nonnull align 8 dereferenceable(976) %m, ptr noundef nonnull align 8 dereferenceable(32) %str) #4 {
entry:
  %m.addr = alloca ptr, align 8
  %str.addr = alloca ptr, align 8
  store ptr %m, ptr %m.addr, align 8
  store ptr %str, ptr %str.addr, align 8
  %0 = load ptr, ptr %m.addr, align 8
  %1 = load ptr, ptr %str.addr, align 8
  %call = call noundef ptr @_ZNKSt7__cxx1112basic_stringIcSt11char_traitsIcESaIcEE5c_strEv(ptr noundef nonnull align 8 dereferenceable(32) %1) #3
  %call1 = call noundef ptr @_ZN9format_ns9mk_stringER11ast_managerPKc(ptr noundef nonnull align 8 dereferenceable(976) %0, ptr noundef %call)
  ret ptr %call1
}

; Function Attrs: mustprogress uwtable
define hidden noundef ptr @_ZN19smt2_pp_environment18pp_datalog_literalEP3app(ptr noundef nonnull align 8 dereferenceable(56) %this, ptr noundef %t) unnamed_addr #4 align 2 personality ptr @__gxx_personality_v0 {
entry:
  %this.addr = alloca ptr, align 8
  %t.addr = alloca ptr, align 8
  %v = alloca i64, align 8
  %ref.tmp = alloca %"class.std::__cxx11::basic_string", align 8
  %exn.slot = alloca ptr, align 8
  %ehselector.slot = alloca i32, align 4
  store ptr %this, ptr %this.addr, align 8
  store ptr %t, ptr %t.addr, align 8
  %this1 = load ptr, ptr %this.addr, align 8
  %vtable = load ptr, ptr %this1, align 8
  %vfn = getelementptr inbounds ptr, ptr %vtable, i64 8
  %0 = load ptr, ptr %vfn, align 8
  %call = call noundef nonnull align 8 dereferenceable(28) ptr %0(ptr noundef nonnull align 8 dereferenceable(56) %this1)
  %1 = load ptr, ptr %t.addr, align 8
  %call2 = call noundef zeroext i1 @_ZNK7datalog12dl_decl_util10is_numeralEPK4exprRm(ptr noundef nonnull align 8 dereferenceable(28) %call, ptr noundef %1, ptr noundef nonnull align 8 dereferenceable(8) %v)
  br i1 %call2, label %if.end, label %if.then

if.then:                                          ; preds = %entry
  call void @_Z26notify_assertion_violationPKciS0_(ptr noundef @.str.9, i32 noundef 395, ptr noundef @.str.28)
  call void @exit(i32 noundef 114) #16
  unreachable

if.end:                                           ; preds = %entry
  %vtable3 = load ptr, ptr %this1, align 8
  %vfn4 = getelementptr inbounds ptr, ptr %vtable3, i64 2
  %2 = load ptr, ptr %vfn4, align 8
  %call5 = call noundef nonnull align 8 dereferenceable(976) ptr %2(ptr noundef nonnull align 8 dereferenceable(56) %this1)
  %3 = load i64, ptr %v, align 8
  call void @_ZNSt7__cxx119to_stringEm(ptr sret(%"class.std::__cxx11::basic_string") align 8 %ref.tmp, i64 noundef %3)
  %call6 = invoke noundef ptr @_ZN9format_nsL9mk_stringER11ast_managerRKNSt7__cxx1112basic_stringIcSt11char_traitsIcESaIcEEE(ptr noundef nonnull align 8 dereferenceable(976) %call5, ptr noundef nonnull align 8 dereferenceable(32) %ref.tmp)
          to label %invoke.cont unwind label %lpad

invoke.cont:                                      ; preds = %if.end
  call void @_ZNSt7__cxx1112basic_stringIcSt11char_traitsIcESaIcEED1Ev(ptr noundef nonnull align 8 dereferenceable(32) %ref.tmp) #3
  ret ptr %call6

lpad:                                             ; preds = %if.end
  %4 = landingpad { ptr, i32 }
          cleanup
  %5 = extractvalue { ptr, i32 } %4, 0
  store ptr %5, ptr %exn.slot, align 8
  %6 = extractvalue { ptr, i32 } %4, 1
  store i32 %6, ptr %ehselector.slot, align 4
  call void @_ZNSt7__cxx1112basic_stringIcSt11char_traitsIcESaIcEED1Ev(ptr noundef nonnull align 8 dereferenceable(32) %ref.tmp) #3
  br label %eh.resume

eh.resume:                                        ; preds = %lpad
  %exn = load ptr, ptr %exn.slot, align 8
  %sel = load i32, ptr %ehselector.slot, align 4
  %lpad.val = insertvalue { ptr, i32 } poison, ptr %exn, 0
  %lpad.val7 = insertvalue { ptr, i32 } %lpad.val, i32 %sel, 1
  resume { ptr, i32 } %lpad.val7
}