; Function Attrs: mustprogress uwtable
define hidden noundef ptr @_ZN19smt2_pp_environment18pp_datalog_literalEP3app(ptr noundef nonnull align 8 dereferenceable(56) %this, ptr noundef %t) unnamed_addr #3 align 2 personality ptr @__gxx_personality_v0 {
entry:
  %v = alloca i64, align 8
  %ref.tmp = alloca %"class.std::__cxx11::basic_string", align 8
  %vtable = load ptr, ptr %this, align 8
  %vfn = getelementptr inbounds i8, ptr %vtable, i64 64
  %0 = load ptr, ptr %vfn, align 8
  %call = tail call noundef nonnull align 8 dereferenceable(28) ptr %0(ptr noundef nonnull align 8 dereferenceable(56) %this)
  %call2 = call noundef zeroext i1 @_ZNK7datalog12dl_decl_util10is_numeralEPK4exprRm(ptr noundef nonnull align 8 dereferenceable(28) %call, ptr noundef %t, ptr noundef nonnull align 8 dereferenceable(8) %v)
  br i1 %call2, label %if.end, label %if.then

if.then:                                          ; preds = %entry
  call void @_Z26notify_assertion_violationPKciS0_(ptr noundef nonnull @.str.9, i32 noundef 395, ptr noundef nonnull @.str.28)
  call void @exit(i32 noundef 114) #22
  unreachable

if.end:                                           ; preds = %entry
  %vtable3 = load ptr, ptr %this, align 8
  %vfn4 = getelementptr inbounds i8, ptr %vtable3, i64 16
  %1 = load ptr, ptr %vfn4, align 8
  %call5 = call noundef nonnull align 8 dereferenceable(976) ptr %1(ptr noundef nonnull align 8 dereferenceable(56) %this)
  %2 = load i64, ptr %v, align 8
  call void @_ZNSt7__cxx119to_stringEm(ptr nonnull sret(%"class.std::__cxx11::basic_string") align 8 %ref.tmp, i64 noundef %2)
  %call.i = call noundef ptr @_ZNKSt7__cxx1112basic_stringIcSt11char_traitsIcESaIcEE5c_strEv(ptr noundef nonnull align 8 dereferenceable(32) %ref.tmp) #19
  %call1.i1 = invoke noundef ptr @_ZN9format_ns9mk_stringER11ast_managerPKc(ptr noundef nonnull align 8 dereferenceable(976) %call5, ptr noundef %call.i)
          to label %invoke.cont unwind label %lpad

invoke.cont:                                      ; preds = %if.end
  call void @_ZNSt7__cxx1112basic_stringIcSt11char_traitsIcESaIcEED1Ev(ptr noundef nonnull align 8 dereferenceable(32) %ref.tmp) #19
  ret ptr %call1.i1

lpad:                                             ; preds = %if.end
  %3 = landingpad { ptr, i32 }
          cleanup
  call void @_ZNSt7__cxx1112basic_stringIcSt11char_traitsIcESaIcEED1Ev(ptr noundef nonnull align 8 dereferenceable(32) %ref.tmp) #19
  resume { ptr, i32 } %3
}